Certificate:
    Data:
        Version: 3 (0x2)
        Serial Number: 2 (0x2)
    Signature Algorithm: sha1WithRSAEncryption
        Issuer: O=eScienceCenter, CN=eScience Center Simple CA
        Validity
            Not Before: Sep  2 15:24:22 2015 GMT
            Not After : Aug 30 15:24:22 2025 GMT
        Subject: O=eScienceCenter, CN=host/gridftp2.xenontest.nlesc.nl
        Subject Public Key Info:
            Public Key Algorithm: rsaEncryption
                Public-Key: (1024 bit)
                Modulus:
                    00:b6:8d:8e:d9:b2:25:34:57:eb:da:ae:d1:ab:d3:
                    b6:c4:a8:0a:3f:a6:af:ed:dc:b5:33:40:a6:a2:82:
                    0c:f0:20:a1:2d:df:b0:1b:db:b9:d2:d1:2b:c1:0a:
                    14:ba:5e:b6:25:d7:78:04:26:b9:db:ee:c4:e3:bb:
                    bb:51:02:51:42:82:30:0e:7c:32:65:2d:61:3a:42:
                    01:a0:7b:89:6d:0f:8c:48:9d:e0:8a:86:3e:80:92:
                    27:2e:56:60:62:3e:24:92:63:58:98:af:dd:1f:f6:
                    55:05:15:17:45:62:3c:2f:f4:c3:43:f6:33:c0:3d:
                    02:3a:04:48:4f:ac:53:98:53
                Exponent: 65537 (0x10001)
        X509v3 extensions:
            Netscape Cert Type: 
                SSL Client, SSL Server, S/MIME, Object Signing
    Signature Algorithm: sha1WithRSAEncryption
         5f:0b:aa:04:d7:b8:05:17:88:44:15:18:b7:94:4a:d2:80:88:
         86:78:68:63:cb:10:ca:ff:e7:b6:aa:3d:f1:45:80:58:f2:a2:
         1b:74:91:4c:e8:e8:b6:e5:32:2f:3b:89:04:7c:36:e6:86:a2:
         d8:76:1b:dd:aa:e8:eb:b5:e0:57:9d:25:ee:d0:9a:ab:25:94:
         ba:ac:46:10:9c:c6:02:e0:c3:ae:db:82:27:fa:a5:45:ad:8a:
         75:eb:d2:66:32:85:2f:e2:d8:ee:65:5d:ce:21:54:bf:22:2b:
         62:b6:3b:9d:44:1b:b0:56:b6:a6:7f:72:c0:bd:b0:e0:d9:cf:
         4d:fa
-----BEGIN CERTIFICATE-----
MIICDDCCAXWgAwIBAgIBAjANBgkqhkiG9w0BAQUFADA9MRcwFQYDVQQKEw5lU2Np
ZW5jZUNlbnRlcjEiMCAGA1UEAxMZZVNjaWVuY2UgQ2VudGVyIFNpbXBsZSBDQTAe
Fw0xNTA5MDIxNTI0MjJaFw0yNTA4MzAxNTI0MjJaMEQxFzAVBgNVBAoTDmVTY2ll
bmNlQ2VudGVyMSkwJwYDVQQDEyBob3N0L2dyaWRmdHAyLnhlbm9udGVzdC5ubGVz
Yy5ubDCBnzANBgkqhkiG9w0BAQEFAAOBjQAwgYkCgYEAto2O2bIlNFfr2q7Rq9O2
xKgKP6av7dy1M0CmooIM8CChLd+wG9u50tErwQoUul62Jdd4BCa52+7E47u7UQJR
QoIwDnwyZS1hOkIBoHuJbQ+MSJ3gioY+gJInLlZgYj4kkmNYmK/dH/ZVBRUXRWI8
L/TDQ/YzwD0COgRIT6xTmFMCAwEAAaMVMBMwEQYJYIZIAYb4QgEBBAQDAgTwMA0G
CSqGSIb3DQEBBQUAA4GBAF8LqgTXuAUXiEQVGLeUStKAiIZ4aGPLEMr/57aqPfFF
gFjyoht0kUzo6LblMi87iQR8NuaGoth2G92q6Ou14FedJe7QmqsllLqsRhCcxgLg
w67bgif6pUWtinXr0mYyhS/i2O5lXc4hVL8iK2K2O51EG7BWtqZ/csC9sODZz036
-----END CERTIFICATE-----
