Certificate:
    Data:
        Version: 3 (0x2)
        Serial Number: 2 (0x2)
    Signature Algorithm: sha1WithRSAEncryption
        Issuer: O=eScienceCenter, CN=eScience Center Simple CA
        Validity
            Not Before: Sep  4 13:00:50 2015 GMT
            Not After : Sep  1 13:00:50 2025 GMT
        Subject: O=eScienceCenter, CN=host/gridftp2.xenontest.nlesc.nl
        Subject Public Key Info:
            Public Key Algorithm: rsaEncryption
                Public-Key: (1024 bit)
                Modulus:
                    00:a5:f0:34:18:51:29:37:87:9f:f4:37:5a:0e:3f:
                    2d:45:21:4b:d3:01:a8:10:64:58:4a:0c:1d:43:63:
                    47:0a:fc:d6:d5:52:cc:8f:83:75:76:14:c3:33:c3:
                    8c:e1:ce:e8:e7:f2:6b:71:a2:98:35:ef:7a:da:42:
                    b0:b7:2e:9b:6e:7a:61:7d:73:75:b6:dd:68:fc:e1:
                    3f:8c:2f:53:ac:e9:be:d3:87:43:06:33:d5:4f:aa:
                    2e:42:d7:c0:c8:a1:94:83:dd:47:27:51:93:d4:3c:
                    bc:2d:04:28:cd:99:89:8b:9f:ad:f2:6d:5f:74:cc:
                    c6:46:11:16:df:56:14:f5:49
                Exponent: 65537 (0x10001)
        X509v3 extensions:
            Netscape Cert Type: 
                SSL Client, SSL Server, S/MIME, Object Signing
    Signature Algorithm: sha1WithRSAEncryption
         a9:8c:d8:04:a6:97:45:d2:40:cb:90:0b:78:65:4d:45:67:ce:
         f1:f4:08:aa:db:f3:c3:9a:44:51:e4:97:77:71:6c:2e:da:4b:
         7d:15:b3:80:e5:a5:30:6e:f6:3b:7e:97:b0:3c:3d:0f:70:c3:
         4d:5a:67:d3:6f:af:50:40:2f:e0:43:80:e1:96:d9:56:7f:32:
         86:e3:89:41:44:89:fa:7d:e2:67:40:16:33:f2:b0:12:92:d1:
         a0:43:fa:ef:00:24:16:fe:f8:78:36:01:9c:8b:ac:f1:6c:4b:
         4b:e0:65:53:a3:15:11:69:ac:c3:b4:c7:40:77:ba:c0:c0:80:
         c7:91
-----BEGIN CERTIFICATE-----
MIICDDCCAXWgAwIBAgIBAjANBgkqhkiG9w0BAQUFADA9MRcwFQYDVQQKEw5lU2Np
ZW5jZUNlbnRlcjEiMCAGA1UEAxMZZVNjaWVuY2UgQ2VudGVyIFNpbXBsZSBDQTAe
Fw0xNTA5MDQxMzAwNTBaFw0yNTA5MDExMzAwNTBaMEQxFzAVBgNVBAoTDmVTY2ll
bmNlQ2VudGVyMSkwJwYDVQQDEyBob3N0L2dyaWRmdHAyLnhlbm9udGVzdC5ubGVz
Yy5ubDCBnzANBgkqhkiG9w0BAQEFAAOBjQAwgYkCgYEApfA0GFEpN4ef9DdaDj8t
RSFL0wGoEGRYSgwdQ2NHCvzW1VLMj4N1dhTDM8OM4c7o5/JrcaKYNe962kKwty6b
bnphfXN1tt1o/OE/jC9TrOm+04dDBjPVT6ouQtfAyKGUg91HJ1GT1Dy8LQQozZmJ
i5+t8m1fdMzGRhEW31YU9UkCAwEAAaMVMBMwEQYJYIZIAYb4QgEBBAQDAgTwMA0G
CSqGSIb3DQEBBQUAA4GBAKmM2ASml0XSQMuQC3hlTUVnzvH0CKrb88OaRFHkl3dx
bC7aS30Vs4DlpTBu9jt+l7A8PQ9ww01aZ9Nvr1BAL+BDgOGW2VZ/MobjiUFEifp9
4mdAFjPysBKS0aBD+u8AJBb++Hg2AZyLrPFsS0vgZVOjFRFprMO0x0B3usDAgMeR
-----END CERTIFICATE-----
