Certificate:
    Data:
        Version: 3 (0x2)
        Serial Number: 3 (0x3)
    Signature Algorithm: sha1WithRSAEncryption
        Issuer: O=eScienceCenter, CN=eScience Center Simple CA
        Validity
            Not Before: Sep  4 13:00:50 2015 GMT
            Not After : Sep  1 13:00:50 2025 GMT
        Subject: O=eScienceCenter, OU=local, CN=xenon
        Subject Public Key Info:
            Public Key Algorithm: rsaEncryption
                Public-Key: (1024 bit)
                Modulus:
                    00:a2:d9:a3:4f:f8:b5:04:0f:f6:03:0f:14:f9:ff:
                    d7:d6:cc:a3:51:73:fc:04:7c:5f:7e:2c:6b:d0:94:
                    9f:86:87:ef:3b:6a:e7:ba:37:ff:7e:f8:82:dc:5b:
                    90:93:42:1e:e0:68:8d:16:77:7b:3d:72:a6:ab:57:
                    12:dd:6a:4f:ca:87:63:fe:d5:12:81:ac:c2:e5:e9:
                    ca:02:d0:d5:38:c6:92:b8:54:48:8e:a2:51:bf:51:
                    9a:b1:1f:23:f0:72:35:e0:f3:aa:fc:47:13:02:0b:
                    d8:b9:68:77:d4:01:d9:6a:20:c6:4b:68:fb:f3:b1:
                    97:88:9b:0c:1d:5f:37:e8:33
                Exponent: 65537 (0x10001)
        X509v3 extensions:
            Netscape Cert Type: 
                SSL Client, SSL Server, S/MIME, Object Signing
    Signature Algorithm: sha1WithRSAEncryption
         a7:6a:af:63:ee:6e:cb:45:8f:c2:b9:62:d1:5b:00:72:de:21:
         dc:95:cd:bf:02:51:73:77:55:72:73:11:c0:ac:a1:41:9a:e3:
         d1:b8:b6:aa:0c:53:b0:a3:b3:91:08:60:fb:cd:37:be:09:78:
         2a:0b:84:4c:89:77:a9:cb:5c:00:b6:8e:b3:6d:6b:12:4a:b6:
         a2:bc:a2:2d:e3:f8:61:43:88:60:5a:46:c6:7d:54:f5:21:39:
         22:62:a9:08:ad:ea:86:17:57:20:ed:63:80:31:66:89:4d:4c:
         d7:8f:0f:a4:f0:5c:cc:64:47:9b:59:72:70:cb:b3:cb:65:03:
         fa:1d
-----BEGIN CERTIFICATE-----
MIICATCCAWqgAwIBAgIBAzANBgkqhkiG9w0BAQUFADA9MRcwFQYDVQQKEw5lU2Np
ZW5jZUNlbnRlcjEiMCAGA1UEAxMZZVNjaWVuY2UgQ2VudGVyIFNpbXBsZSBDQTAe
Fw0xNTA5MDQxMzAwNTBaFw0yNTA5MDExMzAwNTBaMDkxFzAVBgNVBAoTDmVTY2ll
bmNlQ2VudGVyMQ4wDAYDVQQLEwVsb2NhbDEOMAwGA1UEAxMFeGVub24wgZ8wDQYJ
KoZIhvcNAQEBBQADgY0AMIGJAoGBAKLZo0/4tQQP9gMPFPn/19bMo1Fz/AR8X34s
a9CUn4aH7ztq57o3/374gtxbkJNCHuBojRZ3ez1ypqtXEt1qT8qHY/7VEoGswuXp
ygLQ1TjGkrhUSI6iUb9RmrEfI/ByNeDzqvxHEwIL2Llod9QB2Wogxkto+/Oxl4ib
DB1fN+gzAgMBAAGjFTATMBEGCWCGSAGG+EIBAQQEAwIE8DANBgkqhkiG9w0BAQUF
AAOBgQCnaq9j7m7LRY/CuWLRWwBy3iHclc2/AlFzd1VycxHArKFBmuPRuLaqDFOw
o7ORCGD7zTe+CXgqC4RMiXepy1wAto6zbWsSSraivKIt4/hhQ4hgWkbGfVT1ITki
YqkIreqGF1cg7WOAMWaJTUzXjw+k8FzMZEebWXJwy7PLZQP6HQ==
-----END CERTIFICATE-----
