Certificate:
    Data:
        Version: 3 (0x2)
        Serial Number: 1 (0x1)
    Signature Algorithm: sha1WithRSAEncryption
        Issuer: O=eScienceCenter, CN=eScience Center Simple CA
        Validity
            Not Before: Sep  4 13:00:50 2015 GMT
            Not After : Sep  1 13:00:50 2025 GMT
        Subject: O=eScienceCenter, CN=host/gridftp1.xenontest.nlesc.nl
        Subject Public Key Info:
            Public Key Algorithm: rsaEncryption
                Public-Key: (1024 bit)
                Modulus:
                    00:97:16:6b:99:7d:fa:53:41:91:fc:5c:9f:6c:c1:
                    ee:45:c7:06:f4:fb:8c:74:95:04:36:7d:33:20:70:
                    d2:e0:f1:aa:68:19:e1:cc:77:6f:24:0e:49:d8:c7:
                    1c:ef:d4:3f:b4:99:d8:c7:7a:e7:45:d1:17:f4:ba:
                    70:0b:76:6b:df:3f:f6:6a:68:a5:0d:8c:95:a6:a0:
                    6e:e9:86:8c:be:5b:ed:eb:59:89:32:a5:d7:8b:80:
                    c6:e7:a8:dc:8b:df:1d:1c:86:b9:31:69:4d:ea:59:
                    ee:d4:a7:50:86:f4:75:ac:88:3e:94:34:19:d9:9f:
                    2d:8f:54:2f:ed:1a:34:b2:5d
                Exponent: 65537 (0x10001)
        X509v3 extensions:
            Netscape Cert Type: 
                SSL Client, SSL Server, S/MIME, Object Signing
    Signature Algorithm: sha1WithRSAEncryption
         34:db:2e:fc:45:38:d9:b5:e6:6a:c0:78:6d:e1:b2:e8:6e:3c:
         bd:c6:0a:b8:c2:26:66:0e:bd:1c:f4:33:65:68:57:93:e1:86:
         19:b1:de:b5:ce:68:71:64:5f:4d:f4:85:54:29:e1:ec:0c:b9:
         ee:06:b4:43:94:03:e3:aa:00:e8:90:a5:50:ba:84:68:19:70:
         54:88:aa:58:e1:2e:df:07:95:f5:5d:e5:7c:24:51:76:18:75:
         f8:5a:11:6c:0c:f4:cf:89:37:39:76:44:d3:26:8b:a7:3d:18:
         2f:ef:b8:36:cc:78:c4:2c:95:c7:6a:66:c6:fc:69:8d:2e:e2:
         73:fd
-----BEGIN CERTIFICATE-----
MIICDDCCAXWgAwIBAgIBATANBgkqhkiG9w0BAQUFADA9MRcwFQYDVQQKEw5lU2Np
ZW5jZUNlbnRlcjEiMCAGA1UEAxMZZVNjaWVuY2UgQ2VudGVyIFNpbXBsZSBDQTAe
Fw0xNTA5MDQxMzAwNTBaFw0yNTA5MDExMzAwNTBaMEQxFzAVBgNVBAoTDmVTY2ll
bmNlQ2VudGVyMSkwJwYDVQQDEyBob3N0L2dyaWRmdHAxLnhlbm9udGVzdC5ubGVz
Yy5ubDCBnzANBgkqhkiG9w0BAQEFAAOBjQAwgYkCgYEAlxZrmX36U0GR/FyfbMHu
RccG9PuMdJUENn0zIHDS4PGqaBnhzHdvJA5J2Mcc79Q/tJnYx3rnRdEX9LpwC3Zr
3z/2amilDYyVpqBu6YaMvlvt61mJMqXXi4DG56jci98dHIa5MWlN6lnu1KdQhvR1
rIg+lDQZ2Z8tj1Qv7Ro0sl0CAwEAAaMVMBMwEQYJYIZIAYb4QgEBBAQDAgTwMA0G
CSqGSIb3DQEBBQUAA4GBADTbLvxFONm15mrAeG3hsuhuPL3GCrjCJmYOvRz0M2Vo
V5Phhhmx3rXOaHFkX030hVQp4ewMue4GtEOUA+OqAOiQpVC6hGgZcFSIqljhLt8H
lfVd5XwkUXYYdfhaEWwM9M+JNzl2RNMmi6c9GC/vuDbMeMQslcdqZsb8aY0u4nP9
-----END CERTIFICATE-----
