Certificate:
    Data:
        Version: 3 (0x2)
        Serial Number: 1 (0x1)
    Signature Algorithm: sha1WithRSAEncryption
        Issuer: O=eScienceCenter, CN=eScience Center Simple CA
        Validity
            Not Before: Sep  2 15:24:22 2015 GMT
            Not After : Aug 30 15:24:22 2025 GMT
        Subject: O=eScienceCenter, CN=host/gridftp1.xenontest.nlesc.nl
        Subject Public Key Info:
            Public Key Algorithm: rsaEncryption
                Public-Key: (1024 bit)
                Modulus:
                    00:bd:a9:05:b3:f1:19:5c:e5:0f:ce:88:8e:b5:d0:
                    c9:64:3f:69:65:a3:d2:b7:a6:2a:41:fc:34:a2:a2:
                    e0:ba:df:41:be:a9:b2:c0:25:38:f9:71:fd:0d:0c:
                    5e:9d:15:46:b4:46:d8:47:f9:90:c0:00:3b:2b:c0:
                    3d:00:3e:32:05:37:0b:a6:c5:8b:37:2f:06:7e:44:
                    db:87:b3:57:aa:be:8c:6f:07:65:ea:7d:a2:59:5a:
                    c1:a3:08:b2:3d:a5:27:3c:c1:d2:cc:4c:b8:32:8d:
                    66:ce:6c:54:2b:f8:46:6b:7b:f1:d1:52:e0:04:50:
                    f9:81:1c:5f:62:9a:d1:5c:89
                Exponent: 65537 (0x10001)
        X509v3 extensions:
            Netscape Cert Type: 
                SSL Client, SSL Server, S/MIME, Object Signing
    Signature Algorithm: sha1WithRSAEncryption
         32:26:1c:60:02:e6:63:a8:18:87:ab:01:0b:61:a1:ca:b5:31:
         40:9e:4d:80:d8:13:1c:e2:c0:bb:97:0e:65:25:b6:d3:4e:7f:
         9a:3d:58:91:75:4c:a8:43:e5:8b:8b:24:9f:dd:90:9f:74:f1:
         4d:6f:ac:d9:c9:b9:b1:71:e9:54:2f:7d:71:a8:da:32:e7:27:
         0a:10:e3:85:83:70:5b:c6:41:9a:56:1f:80:c1:e4:5a:eb:c4:
         62:c3:ab:f6:3e:5f:7d:0b:5d:3c:aa:39:c2:92:35:54:32:dd:
         09:1a:71:78:05:f6:82:37:52:5d:49:6c:ad:be:8c:e8:46:a9:
         a2:a2
-----BEGIN CERTIFICATE-----
MIICDDCCAXWgAwIBAgIBATANBgkqhkiG9w0BAQUFADA9MRcwFQYDVQQKEw5lU2Np
ZW5jZUNlbnRlcjEiMCAGA1UEAxMZZVNjaWVuY2UgQ2VudGVyIFNpbXBsZSBDQTAe
Fw0xNTA5MDIxNTI0MjJaFw0yNTA4MzAxNTI0MjJaMEQxFzAVBgNVBAoTDmVTY2ll
bmNlQ2VudGVyMSkwJwYDVQQDEyBob3N0L2dyaWRmdHAxLnhlbm9udGVzdC5ubGVz
Yy5ubDCBnzANBgkqhkiG9w0BAQEFAAOBjQAwgYkCgYEAvakFs/EZXOUPzoiOtdDJ
ZD9pZaPSt6YqQfw0oqLgut9BvqmywCU4+XH9DQxenRVGtEbYR/mQwAA7K8A9AD4y
BTcLpsWLNy8GfkTbh7NXqr6Mbwdl6n2iWVrBowiyPaUnPMHSzEy4Mo1mzmxUK/hG
a3vx0VLgBFD5gRxfYprRXIkCAwEAAaMVMBMwEQYJYIZIAYb4QgEBBAQDAgTwMA0G
CSqGSIb3DQEBBQUAA4GBADImHGAC5mOoGIerAQthocq1MUCeTYDYExziwLuXDmUl
ttNOf5o9WJF1TKhD5YuLJJ/dkJ908U1vrNnJubFx6VQvfXGo2jLnJwoQ44WDcFvG
QZpWH4DB5FrrxGLDq/Y+X30LXTyqOcKSNVQy3QkacXgF9oI3Ul1JbK2+jOhGqaKi
-----END CERTIFICATE-----
