Certificate:
    Data:
        Version: 3 (0x2)
        Serial Number: 3 (0x3)
    Signature Algorithm: sha1WithRSAEncryption
        Issuer: O=eScienceCenter, CN=eScience Center Simple CA
        Validity
            Not Before: Sep  2 15:24:22 2015 GMT
            Not After : Aug 30 15:24:22 2025 GMT
        Subject: O=eScienceCenter, OU=local, CN=xenon
        Subject Public Key Info:
            Public Key Algorithm: rsaEncryption
                Public-Key: (1024 bit)
                Modulus:
                    00:9a:c3:0a:da:1b:b6:f9:04:96:b8:f3:b8:b2:40:
                    45:b7:5c:f3:67:0b:66:5e:e6:a7:be:1d:40:11:fe:
                    61:57:60:79:b4:33:da:37:07:9f:76:a5:4f:84:ed:
                    a3:00:1a:d8:b9:73:c4:fb:74:90:ac:0f:47:19:31:
                    f6:a9:70:72:a8:aa:9d:85:3a:e5:65:c6:63:e0:78:
                    43:73:23:13:b7:fe:c2:97:8c:c2:71:62:d4:3d:88:
                    2b:75:d0:6d:07:fc:e4:f7:d1:1c:a3:dc:2b:56:fb:
                    28:77:ae:78:9d:12:46:b4:4d:f2:08:9d:28:79:23:
                    36:4c:60:2d:2d:df:f9:05:8f
                Exponent: 65537 (0x10001)
        X509v3 extensions:
            Netscape Cert Type: 
                SSL Client, SSL Server, S/MIME, Object Signing
    Signature Algorithm: sha1WithRSAEncryption
         3e:14:2a:6e:e9:7f:f0:33:75:a0:68:b2:f0:b2:a7:76:96:6f:
         1d:3d:0f:d4:ed:0e:a4:a4:35:84:06:83:de:0d:e1:16:89:11:
         26:7d:a4:c7:6f:e5:d3:7d:47:1c:8c:44:a4:0e:a0:c9:e0:ee:
         87:0a:52:e1:06:46:b1:e9:4a:ab:4f:a0:0d:24:87:32:0c:99:
         6b:1e:77:d6:d1:a5:ad:09:36:01:7b:9b:2a:5f:d9:a2:79:2e:
         f7:55:67:84:13:f1:d7:48:6e:7b:ea:57:d1:28:d6:65:4d:aa:
         14:d8:5a:e5:3b:19:73:20:07:59:80:25:a2:50:52:d2:7d:49:
         d5:b2
-----BEGIN CERTIFICATE-----
MIICATCCAWqgAwIBAgIBAzANBgkqhkiG9w0BAQUFADA9MRcwFQYDVQQKEw5lU2Np
ZW5jZUNlbnRlcjEiMCAGA1UEAxMZZVNjaWVuY2UgQ2VudGVyIFNpbXBsZSBDQTAe
Fw0xNTA5MDIxNTI0MjJaFw0yNTA4MzAxNTI0MjJaMDkxFzAVBgNVBAoTDmVTY2ll
bmNlQ2VudGVyMQ4wDAYDVQQLEwVsb2NhbDEOMAwGA1UEAxMFeGVub24wgZ8wDQYJ
KoZIhvcNAQEBBQADgY0AMIGJAoGBAJrDCtobtvkElrjzuLJARbdc82cLZl7mp74d
QBH+YVdgebQz2jcHn3alT4TtowAa2LlzxPt0kKwPRxkx9qlwcqiqnYU65WXGY+B4
Q3MjE7f+wpeMwnFi1D2IK3XQbQf85PfRHKPcK1b7KHeueJ0SRrRN8gidKHkjNkxg
LS3f+QWPAgMBAAGjFTATMBEGCWCGSAGG+EIBAQQEAwIE8DANBgkqhkiG9w0BAQUF
AAOBgQA+FCpu6X/wM3WgaLLwsqd2lm8dPQ/U7Q6kpDWEBoPeDeEWiREmfaTHb+XT
fUccjESkDqDJ4O6HClLhBkax6UqrT6ANJIcyDJlrHnfW0aWtCTYBe5sqX9mieS73
VWeEE/HXSG576lfRKNZlTaoU2FrlOxlzIAdZgCWiUFLSfUnVsg==
-----END CERTIFICATE-----
